target datalayout = "e-m:e-p270:32:32-p271:32:32-p272:64:64-i64:64-i128:128-f80:128-n8:16:32:64-S128"
target triple = "x86_64-pc-linux-gnu"

%"class.gmx::CorrelationTensor" = type { %"class.std::vector" }
%"class.std::vector" = type { %"struct.std::_Vector_base" }
%"struct.std::_Vector_base" = type { %"struct.std::_Vector_base<gmx::CorrelationBlockData, std::allocator<gmx::CorrelationBlockData>>::_Vector_impl" }
%"struct.std::_Vector_base<gmx::CorrelationBlockData, std::allocator<gmx::CorrelationBlockData>>::_Vector_impl" = type { %"struct.std::_Vector_base<gmx::CorrelationBlockData, std::allocator<gmx::CorrelationBlockData>>::_Vector_impl_data" }
%"struct.std::_Vector_base<gmx::CorrelationBlockData, std::allocator<gmx::CorrelationBlockData>>::_Vector_impl_data" = type { ptr, ptr, ptr }
%"class.gmx::CorrelationBlockData" = type { double, double, double, double, double, i32, %"class.std::vector.0", %"class.std::vector.5" }
%"class.std::vector.0" = type { %"struct.std::_Vector_base.1" }
%"struct.std::_Vector_base.1" = type { %"struct.std::_Vector_base<gmx::CorrelationBlockData::CoordData, std::allocator<gmx::CorrelationBlockData::CoordData>>::_Vector_impl" }
%"struct.std::_Vector_base<gmx::CorrelationBlockData::CoordData, std::allocator<gmx::CorrelationBlockData::CoordData>>::_Vector_impl" = type { %"struct.std::_Vector_base<gmx::CorrelationBlockData::CoordData, std::allocator<gmx::CorrelationBlockData::CoordData>>::_Vector_impl_data" }
%"struct.std::_Vector_base<gmx::CorrelationBlockData::CoordData, std::allocator<gmx::CorrelationBlockData::CoordData>>::_Vector_impl_data" = type { ptr, ptr, ptr }
%"class.std::vector.5" = type { %"struct.std::_Vector_base.6" }
%"struct.std::_Vector_base.6" = type { %"struct.std::_Vector_base<double, std::allocator<double>>::_Vector_impl" }
%"struct.std::_Vector_base<double, std::allocator<double>>::_Vector_impl" = type { %"struct.std::_Vector_base<double, std::allocator<double>>::_Vector_impl_data" }
%"struct.std::_Vector_base<double, std::allocator<double>>::_Vector_impl_data" = type { ptr, ptr, ptr }
%"class.__gnu_cxx::__normal_iterator.13" = type { ptr }

; Function Attrs: mustprogress nounwind uwtable
define linkonce_odr void @_ZN9__gnu_cxx17__normal_iteratorIPN3gmx20CorrelationBlockDataESt6vectorIS2_SaIS2_EEEC2ERKS3_(ptr noundef nonnull align 8 dereferenceable(8) %0, ptr noundef nonnull align 8 dereferenceable(8) %1) unnamed_addr #2 comdat align 2 {
  %3 = alloca ptr, align 8
  %4 = alloca ptr, align 8
  store ptr %0, ptr %3, align 8, !tbaa !108
  store ptr %1, ptr %4, align 8, !tbaa !112
  %5 = load ptr, ptr %3, align 8
  %6 = getelementptr inbounds nuw %"class.__gnu_cxx::__normal_iterator.13", ptr %5, i32 0, i32 0
  %7 = load ptr, ptr %4, align 8, !tbaa !112
  %8 = load ptr, ptr %7, align 8, !tbaa !24
  store ptr %8, ptr %6, align 8, !tbaa !110
  ret void
}

; Function Attrs: mustprogress nounwind uwtable
define linkonce_odr noundef nonnull align 8 dereferenceable(96) ptr @_ZNK9__gnu_cxx17__normal_iteratorIPN3gmx20CorrelationBlockDataESt6vectorIS2_SaIS2_EEEdeEv(ptr noundef nonnull align 8 dereferenceable(8) %0) #2 comdat align 2 {
  %2 = alloca ptr, align 8
  store ptr %0, ptr %2, align 8, !tbaa !108
  %3 = load ptr, ptr %2, align 8
  %4 = getelementptr inbounds nuw %"class.__gnu_cxx::__normal_iterator.13", ptr %3, i32 0, i32 0
  %5 = load ptr, ptr %4, align 8, !tbaa !110
  ret ptr %5
}

; Function Attrs: mustprogress nounwind uwtable
define linkonce_odr ptr @_ZNK9__gnu_cxx17__normal_iteratorIPN3gmx20CorrelationBlockDataESt6vectorIS2_SaIS2_EEEmiEl(ptr noundef nonnull align 8 dereferenceable(8) %0, i64 noundef %1) #2 comdat align 2 {
  %3 = alloca %"class.__gnu_cxx::__normal_iterator.13", align 8
  %4 = alloca ptr, align 8
  %5 = alloca i64, align 8
  %6 = alloca ptr, align 8
  store ptr %0, ptr %4, align 8, !tbaa !108
  store i64 %1, ptr %5, align 8, !tbaa !13
  %7 = load ptr, ptr %4, align 8
  call void @llvm.lifetime.start.p0(i64 8, ptr %6) #15
  %8 = getelementptr inbounds nuw %"class.__gnu_cxx::__normal_iterator.13", ptr %7, i32 0, i32 0
  %9 = load ptr, ptr %8, align 8, !tbaa !110
  %10 = load i64, ptr %5, align 8, !tbaa !13
  %11 = sub i64 0, %10
  %12 = getelementptr inbounds %"class.gmx::CorrelationBlockData", ptr %9, i64 %11
  store ptr %12, ptr %6, align 8, !tbaa !24
  call void @_ZN9__gnu_cxx17__normal_iteratorIPN3gmx20CorrelationBlockDataESt6vectorIS2_SaIS2_EEEC2ERKS3_(ptr noundef nonnull align 8 dereferenceable(8) %3, ptr noundef nonnull align 8 dereferenceable(8) %6) #15
  call void @llvm.lifetime.end.p0(i64 8, ptr %6) #15
  %13 = getelementptr inbounds nuw %"class.__gnu_cxx::__normal_iterator.13", ptr %3, i32 0, i32 0
  %14 = load ptr, ptr %13, align 8
  ret ptr %14
}

; Function Attrs: mustprogress nounwind uwtable
define linkonce_odr ptr @_ZNSt6vectorIN3gmx20CorrelationBlockDataESaIS1_EE3endEv(ptr noundef nonnull align 8 dereferenceable(24) %0) #2 comdat align 2 {
  %2 = alloca %"class.__gnu_cxx::__normal_iterator.13", align 8
  %3 = alloca ptr, align 8
  store ptr %0, ptr %3, align 8, !tbaa !26
  %4 = load ptr, ptr %3, align 8
  %5 = getelementptr inbounds nuw %"struct.std::_Vector_base", ptr %4, i32 0, i32 0
  %6 = getelementptr inbounds nuw %"struct.std::_Vector_base<gmx::CorrelationBlockData, std::allocator<gmx::CorrelationBlockData>>::_Vector_impl_data", ptr %5, i32 0, i32 1
  call void @_ZN9__gnu_cxx17__normal_iteratorIPN3gmx20CorrelationBlockDataESt6vectorIS2_SaIS2_EEEC2ERKS3_(ptr noundef nonnull align 8 dereferenceable(8) %2, ptr noundef nonnull align 8 dereferenceable(8) %6) #15
  %7 = getelementptr inbounds nuw %"class.__gnu_cxx::__normal_iterator.13", ptr %2, i32 0, i32 0
  %8 = load ptr, ptr %7, align 8
  ret ptr %8
}

; Function Attrs: mustprogress nounwind uwtable
define linkonce_odr void @_ZN3gmx20CorrelationBlockData17doubleBlockLengthEv(ptr noundef nonnull align 8 dereferenceable(96) %0) #2 comdat align 2 {
  %2 = alloca ptr, align 8
  store ptr %0, ptr %2, align 8, !tbaa !24
  %3 = load ptr, ptr %2, align 8
  %4 = getelementptr inbounds nuw %"class.gmx::CorrelationBlockData", ptr %3, i32 0, i32 4
  %5 = load double, ptr %4, align 8, !tbaa !59
  %6 = fmul double %5, 2.000000e+00
  store double %6, ptr %4, align 8, !tbaa !59
  ret void
}

; Function Attrs: mustprogress nounwind uwtable
define linkonce_odr noundef nonnull align 8 dereferenceable(96) ptr @_ZNSt6vectorIN3gmx20CorrelationBlockDataESaIS1_EE4backEv(ptr noundef nonnull align 8 dereferenceable(24) %0) #2 comdat align 2 {
  %2 = alloca ptr, align 8
  %3 = alloca %"class.__gnu_cxx::__normal_iterator.13", align 8
  %4 = alloca %"class.__gnu_cxx::__normal_iterator.13", align 8
  store ptr %0, ptr %2, align 8, !tbaa !26
  %5 = load ptr, ptr %2, align 8
  call void @llvm.lifetime.start.p0(i64 8, ptr %3) #15
  call void @llvm.lifetime.start.p0(i64 8, ptr %4) #15
  %6 = call ptr @_ZNSt6vectorIN3gmx20CorrelationBlockDataESaIS1_EE3endEv(ptr noundef nonnull align 8 dereferenceable(24) %5) #15
  %7 = getelementptr inbounds nuw %"class.__gnu_cxx::__normal_iterator.13", ptr %4, i32 0, i32 0
  store ptr %6, ptr %7, align 8
  %8 = call ptr @_ZNK9__gnu_cxx17__normal_iteratorIPN3gmx20CorrelationBlockDataESt6vectorIS2_SaIS2_EEEmiEl(ptr noundef nonnull align 8 dereferenceable(8) %4, i64 noundef 1) #15
  %9 = getelementptr inbounds nuw %"class.__gnu_cxx::__normal_iterator.13", ptr %3, i32 0, i32 0
  store ptr %8, ptr %9, align 8
  %10 = call noundef nonnull align 8 dereferenceable(96) ptr @_ZNK9__gnu_cxx17__normal_iteratorIPN3gmx20CorrelationBlockDataESt6vectorIS2_SaIS2_EEEdeEv(ptr noundef nonnull align 8 dereferenceable(8) %3) #15
  call void @llvm.lifetime.end.p0(i64 8, ptr %4) #15
  call void @llvm.lifetime.end.p0(i64 8, ptr %3) #15
  ret ptr %10
}

; Function Attrs: inlinehint mustprogress uwtable
define linkonce_odr noundef nonnull align 8 dereferenceable(96) ptr @_ZN3gmx20CorrelationBlockDataaSERKS0_(ptr noundef nonnull align 8 dereferenceable(96) %0, ptr noundef nonnull align 8 dereferenceable(96) %1) #8 comdat align 2 {
  %3 = alloca ptr, align 8
  %4 = alloca ptr, align 8
  store ptr %0, ptr %3, align 8, !tbaa !24
  store ptr %1, ptr %4, align 8, !tbaa !24
  %5 = load ptr, ptr %3, align 8
  %6 = getelementptr inbounds nuw %"class.gmx::CorrelationBlockData", ptr %5, i32 0, i32 0
  %7 = load ptr, ptr %4, align 8
  %8 = getelementptr inbounds nuw %"class.gmx::CorrelationBlockData", ptr %7, i32 0, i32 0
  call void @llvm.memcpy.p0.p0.i64(ptr align 8 %6, ptr align 8 %8, i64 44, i1 false)
  %9 = getelementptr inbounds nuw %"class.gmx::CorrelationBlockData", ptr %5, i32 0, i32 6
  %10 = load ptr, ptr %4, align 8, !tbaa !24
  %11 = getelementptr inbounds nuw %"class.gmx::CorrelationBlockData", ptr %10, i32 0, i32 6
  %12 = call noundef nonnull align 8 dereferenceable(24) ptr @_ZNSt6vectorIN3gmx20CorrelationBlockData9CoordDataESaIS2_EEaSERKS4_(ptr noundef nonnull align 8 dereferenceable(24) %9, ptr noundef nonnull align 8 dereferenceable(24) %11)
  %13 = getelementptr inbounds nuw %"class.gmx::CorrelationBlockData", ptr %5, i32 0, i32 7
  %14 = load ptr, ptr %4, align 8, !tbaa !24
  %15 = getelementptr inbounds nuw %"class.gmx::CorrelationBlockData", ptr %14, i32 0, i32 7
  %16 = call noundef nonnull align 8 dereferenceable(24) ptr @_ZNSt6vectorIdSaIdEEaSERKS1_(ptr noundef nonnull align 8 dereferenceable(24) %13, ptr noundef nonnull align 8 dereferenceable(24) %15)
  ret ptr %5
}

; Function Attrs: mustprogress nounwind uwtable
define linkonce_odr noundef nonnull align 8 dereferenceable(96) ptr @_ZNSt6vectorIN3gmx20CorrelationBlockDataESaIS1_EEixEm(ptr noundef nonnull align 8 dereferenceable(24) %0, i64 noundef %1) #2 comdat align 2 {
  %3 = alloca ptr, align 8
  %4 = alloca i64, align 8
  store ptr %0, ptr %3, align 8, !tbaa !26
  store i64 %1, ptr %4, align 8, !tbaa !13
  %5 = load ptr, ptr %3, align 8
  %6 = getelementptr inbounds nuw %"struct.std::_Vector_base", ptr %5, i32 0, i32 0
  %7 = getelementptr inbounds nuw %"struct.std::_Vector_base<gmx::CorrelationBlockData, std::allocator<gmx::CorrelationBlockData>>::_Vector_impl_data", ptr %6, i32 0, i32 0
  %8 = load ptr, ptr %7, align 8, !tbaa !28
  %9 = load i64, ptr %4, align 8, !tbaa !13
  %10 = getelementptr inbounds nuw %"class.gmx::CorrelationBlockData", ptr %8, i64 %9
  ret ptr %10
}

; Function Attrs: mustprogress nounwind uwtable
define linkonce_odr noundef i64 @_ZNKSt6vectorIN3gmx20CorrelationBlockDataESaIS1_EE4sizeEv(ptr noundef nonnull align 8 dereferenceable(24) %0) #2 comdat align 2 {
  %2 = alloca ptr, align 8
  store ptr %0, ptr %2, align 8, !tbaa !26
  %3 = load ptr, ptr %2, align 8
  %4 = getelementptr inbounds nuw %"struct.std::_Vector_base", ptr %3, i32 0, i32 0
  %5 = getelementptr inbounds nuw %"struct.std::_Vector_base<gmx::CorrelationBlockData, std::allocator<gmx::CorrelationBlockData>>::_Vector_impl_data", ptr %4, i32 0, i32 1
  %6 = load ptr, ptr %5, align 8, !tbaa !58
  %7 = getelementptr inbounds nuw %"struct.std::_Vector_base", ptr %3, i32 0, i32 0
  %8 = getelementptr inbounds nuw %"struct.std::_Vector_base<gmx::CorrelationBlockData, std::allocator<gmx::CorrelationBlockData>>::_Vector_impl_data", ptr %7, i32 0, i32 0
  %9 = load ptr, ptr %8, align 8, !tbaa !28
  %10 = ptrtoint ptr %6 to i64
  %11 = ptrtoint ptr %9 to i64
  %12 = sub i64 %10, %11
  %13 = sdiv exact i64 %12, 96
  ret i64 %13
}

; Function Attrs: mustprogress uwtable
define void @_ZN3gmx17CorrelationTensor18doubleBlockLengthsEv(ptr noundef nonnull align 8 dereferenceable(24) %0) #0 align 2 {
  %2 = alloca ptr, align 8
  %3 = alloca i64, align 8
  store ptr %0, ptr %2, align 8, !tbaa !22
  %4 = load ptr, ptr %2, align 8
  call void @llvm.lifetime.start.p0(i64 8, ptr %3) #15
  store i64 0, ptr %3, align 8, !tbaa !13
  br label %5

5:                                                ; preds = %21, %1
  %6 = load i64, ptr %3, align 8, !tbaa !13
  %7 = getelementptr inbounds nuw %"class.gmx::CorrelationTensor", ptr %4, i32 0, i32 0
  %8 = call noundef i64 @_ZNKSt6vectorIN3gmx20CorrelationBlockDataESaIS1_EE4sizeEv(ptr noundef nonnull align 8 dereferenceable(24) %7) #15
  %9 = sub i64 %8, 1
  %10 = icmp ult i64 %6, %9
  br i1 %10, label %12, label %11

11:                                               ; preds = %5
  call void @llvm.lifetime.end.p0(i64 8, ptr %3) #15
  br label %24

12:                                               ; preds = %5
  %13 = getelementptr inbounds nuw %"class.gmx::CorrelationTensor", ptr %4, i32 0, i32 0
  %14 = load i64, ptr %3, align 8, !tbaa !13
  %15 = add i64 %14, 1
  %16 = call noundef nonnull align 8 dereferenceable(96) ptr @_ZNSt6vectorIN3gmx20CorrelationBlockDataESaIS1_EEixEm(ptr noundef nonnull align 8 dereferenceable(24) %13, i64 noundef %15) #15
  %17 = getelementptr inbounds nuw %"class.gmx::CorrelationTensor", ptr %4, i32 0, i32 0
  %18 = load i64, ptr %3, align 8, !tbaa !13
  %19 = call noundef nonnull align 8 dereferenceable(96) ptr @_ZNSt6vectorIN3gmx20CorrelationBlockDataESaIS1_EEixEm(ptr noundef nonnull align 8 dereferenceable(24) %17, i64 noundef %18) #15
  %20 = call noundef nonnull align 8 dereferenceable(96) ptr @_ZN3gmx20CorrelationBlockDataaSERKS0_(ptr noundef nonnull align 8 dereferenceable(96) %19, ptr noundef nonnull align 8 dereferenceable(96) %16)
  br label %21

21:                                               ; preds = %12
  %22 = load i64, ptr %3, align 8, !tbaa !13
  %23 = add i64 %22, 1
  store i64 %23, ptr %3, align 8, !tbaa !13
  br label %5, !llvm.loop !57

24:                                               ; preds = %11
  %25 = getelementptr inbounds nuw %"class.gmx::CorrelationTensor", ptr %4, i32 0, i32 0
  %26 = call noundef nonnull align 8 dereferenceable(96) ptr @_ZNSt6vectorIN3gmx20CorrelationBlockDataESaIS1_EE4backEv(ptr noundef nonnull align 8 dereferenceable(24) %25) #15
  call void @_ZN3gmx20CorrelationBlockData17doubleBlockLengthEv(ptr noundef nonnull align 8 dereferenceable(96) %26)
  ret void
}