; Function Attrs: mustprogress uwtable
define void @_ZN3gmx17CorrelationTensor18doubleBlockLengthsEv(ptr noundef nonnull readonly align 8 captures(none) dereferenceable(24) %0) local_unnamed_addr #7 align 2 {
  %2 = getelementptr inbounds nuw i8, ptr %0, i64 8
  %3 = load ptr, ptr %2, align 8, !tbaa !30
  %4 = load ptr, ptr %0, align 8, !tbaa !10
  %5 = ptrtoint ptr %3 to i64
  %6 = ptrtoint ptr %4 to i64
  %7 = sub i64 %5, %6
  %.not = icmp eq i64 %7, 96
  br i1 %.not, label %._crit_edge, label %.lr.ph

._crit_edge:                                      ; preds = %.lr.ph, %1
  %.lcssa = phi ptr [ %3, %1 ], [ %21, %.lr.ph ]
  %8 = getelementptr inbounds i8, ptr %.lcssa, i64 -64
  %9 = load double, ptr %8, align 8, !tbaa !31
  %10 = fmul double %9, 2.000000e+00
  store double %10, ptr %8, align 8, !tbaa !31
  ret void

.lr.ph:                                           ; preds = %1, %.lr.ph
  %11 = phi ptr [ %22, %.lr.ph ], [ %4, %1 ]
  %.04 = phi i64 [ %12, %.lr.ph ], [ 0, %1 ]
  %12 = add nuw i64 %.04, 1
  %13 = getelementptr inbounds nuw %"class.gmx::CorrelationBlockData", ptr %11, i64 %12
  %14 = getelementptr inbounds nuw %"class.gmx::CorrelationBlockData", ptr %11, i64 %.04
  tail call void @llvm.memcpy.p0.p0.i64(ptr noundef nonnull align 8 dereferenceable(96) %14, ptr noundef nonnull align 8 dereferenceable(96) %13, i64 44, i1 false)
  %15 = getelementptr inbounds nuw i8, ptr %14, i64 48
  %16 = getelementptr inbounds nuw i8, ptr %13, i64 48
  %17 = tail call noundef nonnull align 8 dereferenceable(24) ptr @_ZNSt6vectorIN3gmx20CorrelationBlockData9CoordDataESaIS2_EEaSERKS4_(ptr noundef nonnull align 8 dereferenceable(24) %15, ptr noundef nonnull align 8 dereferenceable(24) %16)
  %18 = getelementptr inbounds nuw i8, ptr %14, i64 72
  %19 = getelementptr inbounds nuw i8, ptr %13, i64 72
  %20 = tail call noundef nonnull align 8 dereferenceable(24) ptr @_ZNSt6vectorIdSaIdEEaSERKS1_(ptr noundef nonnull align 8 dereferenceable(24) %18, ptr noundef nonnull align 8 dereferenceable(24) %19)
  %21 = load ptr, ptr %2, align 8, !tbaa !30
  %22 = load ptr, ptr %0, align 8, !tbaa !10
  %23 = ptrtoint ptr %21 to i64
  %24 = ptrtoint ptr %22 to i64
  %25 = sub i64 %23, %24
  %26 = sdiv exact i64 %25, 96
  %27 = add nsw i64 %26, -1
  %28 = icmp ult i64 %12, %27
  br i1 %28, label %.lr.ph, label %._crit_edge, !llvm.loop !32
}